target datalayout = "e-m:e-p270:32:32-p271:32:32-p272:64:64-i64:64-i128:128-f80:128-n8:16:32:64-S128"
target triple = "x86_64-pc-linux-gnu"

%struct._php_random_algo = type { i64, ptr, ptr, ptr, ptr }
%struct._php_random_result = type { i64, i64 }

@php_random_algo_secure = constant %struct._php_random_algo { i64 0, ptr @generate, ptr @range, ptr null, ptr null }, align 8

; Function Attrs: nounwind uwtable
define internal { i64, i64 } @generate(ptr noundef %0) #0 {
  %2 = alloca %struct._php_random_result, align 8
  %3 = alloca ptr, align 8
  %4 = alloca i64, align 8
  store ptr %0, ptr %3, align 8
  store i64 0, ptr %4, align 8
  %5 = call i32 @php_random_bytes_throw(ptr noundef %4, i64 noundef 8)
  %6 = getelementptr inbounds %struct._php_random_result, ptr %2, i32 0, i32 0
  %7 = load i64, ptr %4, align 8
  store i64 %7, ptr %6, align 8
  %8 = getelementptr inbounds %struct._php_random_result, ptr %2, i32 0, i32 1
  store i64 8, ptr %8, align 8
  %9 = load { i64, i64 }, ptr %2, align 8
  ret { i64, i64 } %9
}

; Function Attrs: nounwind uwtable
define internal i64 @range(ptr noundef %0, i64 noundef %1, i64 noundef %2) #0 {
  %4 = alloca ptr, align 8
  %5 = alloca i64, align 8
  %6 = alloca i64, align 8
  %7 = alloca i64, align 8
  store ptr %0, ptr %4, align 8
  store i64 %1, ptr %5, align 8
  store i64 %2, ptr %6, align 8
  store i64 0, ptr %7, align 8
  %8 = load i64, ptr %5, align 8
  %9 = load i64, ptr %6, align 8
  %10 = call i32 @php_random_int_throw(i64 noundef %8, i64 noundef %9, ptr noundef %7)
  %11 = load i64, ptr %7, align 8
  ret i64 %11
}

; Function Attrs: nounwind uwtable
define internal i32 @php_random_bytes_throw(ptr noundef %0, i64 noundef %1) #0 {
  %3 = alloca ptr, align 8
  %4 = alloca i64, align 8
  store ptr %0, ptr %3, align 8
  store i64 %1, ptr %4, align 8
  %5 = load ptr, ptr %3, align 8
  %6 = load i64, ptr %4, align 8
  %7 = call i32 @php_random_bytes(ptr noundef %5, i64 noundef %6, i1 noundef zeroext true)
  ret i32 %7
}

declare i32 @php_random_bytes(ptr noundef, i64 noundef, i1 noundef zeroext) #1

; Function Attrs: nounwind uwtable
define internal i32 @php_random_int_throw(i64 noundef %0, i64 noundef %1, ptr noundef %2) #0 {
  %4 = alloca i64, align 8
  %5 = alloca i64, align 8
  %6 = alloca ptr, align 8
  store i64 %0, ptr %4, align 8
  store i64 %1, ptr %5, align 8
  store ptr %2, ptr %6, align 8
  %7 = load i64, ptr %4, align 8
  %8 = load i64, ptr %5, align 8
  %9 = load ptr, ptr %6, align 8
  %10 = call i32 @php_random_int(i64 noundef %7, i64 noundef %8, ptr noundef %9, i1 noundef zeroext true)
  ret i32 %10
}

declare i32 @php_random_int(i64 noundef, i64 noundef, ptr noundef, i1 noundef zeroext) #1


!llvm.module.flags = !{!0, !1, !2, !3}

!0 = !{i32 1, !"wchar_size", i32 4}
!1 = !{i32 8, !"PIC Level", i32 2}
!2 = !{i32 7, !"uwtable", i32 2}
!3 = !{i32 7, !"frame-pointer", i32 2}
