; ModuleID = 'bench/php/original/engine_secure.ll'
source_filename = "bench/php/original/engine_secure.ll"
target datalayout = "e-m:e-p270:32:32-p271:32:32-p272:64:64-i64:64-i128:128-f80:128-n8:16:32:64-S128"
target triple = "x86_64-pc-linux-gnu"

%struct._php_random_algo = type { i64, ptr, ptr, ptr, ptr }

@php_random_algo_secure = local_unnamed_addr constant %struct._php_random_algo { i64 0, ptr @generate, ptr @range, ptr null, ptr null }, align 8

; Function Attrs: nounwind uwtable
define internal { i64, i64 } @generate(ptr nocapture readnone %0) #0 {
  %2 = alloca i64, align 8
  store i64 0, ptr %2, align 8
  %3 = call i32 @php_random_bytes(ptr noundef nonnull %2, i64 noundef 8, i1 noundef zeroext true) #2
  %4 = load i64, ptr %2, align 8
  %.fca.0.insert = insertvalue { i64, i64 } poison, i64 %4, 0
  %.fca.1.insert = insertvalue { i64, i64 } %.fca.0.insert, i64 8, 1
  ret { i64, i64 } %.fca.1.insert
}

; Function Attrs: nounwind uwtable
define internal i64 @range(ptr nocapture readnone %0, i64 noundef %1, i64 noundef %2) #0 {
  %4 = alloca i64, align 8
  store i64 0, ptr %4, align 8
  %5 = call i32 @php_random_int(i64 noundef %1, i64 noundef %2, ptr noundef nonnull %4, i1 noundef zeroext true) #2
  %6 = load i64, ptr %4, align 8
  ret i64 %6
}

declare i32 @php_random_bytes(ptr noundef, i64 noundef, i1 noundef zeroext) local_unnamed_addr #1

declare i32 @php_random_int(i64 noundef, i64 noundef, ptr noundef, i1 noundef zeroext) local_unnamed_addr #1


!llvm.module.flags = !{!0, !1, !2, !3}

!0 = !{i32 1, !"wchar_size", i32 4}
!1 = !{i32 8, !"PIC Level", i32 2}
!2 = !{i32 7, !"uwtable", i32 2}
!3 = !{i32 7, !"frame-pointer", i32 2}
